# SymbolsHelper-Confirmed: 6.4.1 amd64
libQt6ShaderTools.so.6 libqt6shadertools6 #MINVER#
* Build-Depends-Package: libqt6shadertools6-dev
 _ZN12QShaderBaker11setPreambleERK10QByteArray@Base 6.2.0
 _ZN12QShaderBaker15setSourceDeviceEP9QIODeviceN7QShader5StageERK7QString@Base 6.2.0
 _ZN12QShaderBaker15setSourceStringERK10QByteArrayN7QShader5StageERK7QString@Base 6.2.0
 _ZN12QShaderBaker15setSpirvOptionsE6QFlagsINS_11SpirvOptionEE@Base 6.2.0
 _ZN12QShaderBaker17setSourceFileNameERK7QString@Base 6.2.0
 _ZN12QShaderBaker17setSourceFileNameERK7QStringN7QShader5StageE@Base 6.2.0
 _ZN12QShaderBaker19setGeneratedShadersERK5QListISt4pairIN7QShader6SourceE14QShaderVersionEE@Base 6.2.0
 _ZN12QShaderBaker23setPerTargetCompilationEb@Base 6.2.0
 _ZN12QShaderBaker26setGeneratedShaderVariantsERK5QListIN7QShader7VariantEE@Base 6.2.0
 _ZN12QShaderBaker42setBatchableVertexShaderExtraInputLocationEi@Base 6.2.0
 _ZN12QShaderBaker4bakeEv@Base 6.2.0
 _ZN12QShaderBakerC1Ev@Base 6.2.0
 _ZN12QShaderBakerC2Ev@Base 6.2.0
 _ZN12QShaderBakerD1Ev@Base 6.2.0
 _ZN12QShaderBakerD2Ev@Base 6.2.0
 _ZN12QSpirvShader11setFileNameERK7QString@Base 6.2.0
 _ZN12QSpirvShader14setSpirvBinaryERK10QByteArray@Base 6.2.0
 _ZN12QSpirvShader9setDeviceEP9QIODevice@Base 6.2.0
 _ZN12QSpirvShaderC1Ev@Base 6.2.0
 _ZN12QSpirvShaderC2Ev@Base 6.2.0
 _ZN12QSpirvShaderD1Ev@Base 6.2.0
 _ZN12QSpirvShaderD2Ev@Base 6.2.0
 _ZN14QSpirvCompiler11setPreambleERK10QByteArray@Base 6.2.0
 _ZN14QSpirvCompiler14compileToSpirvEv@Base 6.2.0
 _ZN14QSpirvCompiler15setSourceDeviceEP9QIODeviceN7QShader5StageERK7QString@Base 6.2.0
 _ZN14QSpirvCompiler15setSourceStringERK10QByteArrayN7QShader5StageERK7QString@Base 6.2.0
 _ZN14QSpirvCompiler17setSourceFileNameERK7QString@Base 6.2.0
 _ZN14QSpirvCompiler17setSourceFileNameERK7QStringN7QShader5StageE@Base 6.2.0
 _ZN14QSpirvCompiler32setSGBatchingVertexInputLocationEi@Base 6.2.0
 _ZN14QSpirvCompiler8setFlagsE6QFlagsINS_4FlagEE@Base 6.2.0
 _ZN14QSpirvCompilerC1Ev@Base 6.2.0
 _ZN14QSpirvCompilerC2Ev@Base 6.2.0
 _ZN14QSpirvCompilerD1Ev@Base 6.2.0
 _ZN14QSpirvCompilerD2Ev@Base 6.2.0
 _ZN20QSpirvShaderRemapper15remapLogHandlerERKNSt7__cxx1112basic_stringIcSt11char_traitsIcESaIcEEE@Base 6.2.0
 _ZN20QSpirvShaderRemapper17remapErrorHandlerERKNSt7__cxx1112basic_stringIcSt11char_traitsIcESaIcEEE@Base 6.2.0
 _ZN20QSpirvShaderRemapper5remapERK10QByteArray6QFlagsIN12QSpirvShader9RemapFlagEE@Base 6.2.0
 _ZNK12QShaderBaker12errorMessageEv@Base 6.2.0
 _ZNK12QSpirvShader11spirvBinaryEv@Base 6.2.0
 _ZNK12QSpirvShader14translateToMSLEiP5QHashIiSt4pairIiiEE@Base 6.2.0
 _ZNK12QSpirvShader15translateToGLSLEi6QFlagsINS_8GlslFlagEEP5QListINS_37SeparateToCombinedImageSamplerMappingEE@Base 6.4.0
 _ZNK12QSpirvShader15translateToHLSLEiP5QHashIiSt4pairIiiEE@Base 6.2.0
 _ZNK12QSpirvShader17shaderDescriptionEv@Base 6.2.0
 _ZNK12QSpirvShader19remappedSpirvBinaryE6QFlagsINS_9RemapFlagEEP7QString@Base 6.2.0
 _ZNK12QSpirvShader23translationErrorMessageEv@Base 6.2.0
 _ZNK14QSpirvCompiler12errorMessageEv@Base 6.2.0
 _ZSt19piecewise_construct@Base 6.4.1
 _ZTISt17_Weak_result_typeIM20QSpirvShaderRemapperFvRKNSt7__cxx1112basic_stringIcSt11char_traitsIcESaIcEEEEE@Base 6.2.0
 _ZTISt24_Weak_result_type_memfunIM20QSpirvShaderRemapperFvRKNSt7__cxx1112basic_stringIcSt11char_traitsIcESaIcEEEELb1EE@Base 6.2.0
 _ZTISt5_BindIFM20QSpirvShaderRemapperFvRKNSt7__cxx1112basic_stringIcSt11char_traitsIcESaIcEEEEPS0_St12_PlaceholderILi1EEEE@Base 6.2.0
 _ZTSSt17_Weak_result_typeIM20QSpirvShaderRemapperFvRKNSt7__cxx1112basic_stringIcSt11char_traitsIcESaIcEEEEE@Base 6.2.0
 _ZTSSt24_Weak_result_type_memfunIM20QSpirvShaderRemapperFvRKNSt7__cxx1112basic_stringIcSt11char_traitsIcESaIcEEEELb1EE@Base 6.2.0
 _ZTSSt5_BindIFM20QSpirvShaderRemapperFvRKNSt7__cxx1112basic_stringIcSt11char_traitsIcESaIcEEEEPS0_St12_PlaceholderILi1EEEE@Base 6.2.0
